(lp0
I172500
aI202500
aI243750
aI198750
aI125625
aI146250
aI41250
aI221250
aI350625
aI232500
aI153750
aI240000
aI285000
aI35625
aI22500
aI348750
aI238125
aI326250
aI256875
aI217500
aI176250
aI195000
aI63750
aI264375
aI234375
aI65625
aI16875
aI159375
aI341250
aI371250
aI118125
aI270000
aI337500
aI268125
aI157500
aI316875
aI200625
aI367500
aI330000
aI75000
aI260625
aI271875
aI165000
aI361875
aI84375
aI28125
aI78750
aI58125
aI106875
aI373125
aI339375
aI127500
aI292500
aI15000
aI121875
aI33750
aI37500
aI39375
aI86250
aI266250
aI76875
aI123750
aI290625
aI286875
aI181875
aI255000
aI183750
aI206250
aI71250
aI0
aI356250
aI262500
aI219375
aI283125
aI303750
aI80625
aI180000
aI103125
aI273750
aI52500
aI5625
aI60000
aI101250
aI187500
aI13125
aI18750
aI313125
aI150000
aI54375
aI174375
aI151875
aI345000
aI61875
aI46875
aI241875
aI99375
aI333750
aI369375
aI108750
aI166875
aI45000
aI245625
aI185625
aI204375
aI288750
aI296250
aI97500
aI129375
aI90000
aI196875
aI105000
aI249375
aI294375
aI360000
aI236250
aI1875
aI110625
aI26250
aI258750
aI140625
aI133125
aI331875
aI324375
aI225000
aI24375
aI191250
aI281250
aI346875
aI114375
aI148125
aI69375
aI3750
aI211875
aI131250
aI178125
aI318750
aI112500
aI215625
aI251250
aI298125
aI363750
aI193125
aI301875
aI120000
aI322500
aI315000
aI228750
aI50625
aI136875
aI168750
aI67500
aI307500
aI142500
aI20625
aI300000
aI93750
aI138750
aI352500
aI56250
aI31875
aI91875
aI189375
aI95625
aI11250
aI354375
aI48750
aI213750
aI210000
aI30000
aI144375
aI163125
aI277500
aI9375
aI320625
aI135000
aI161250
aI309375
aI305625
aI155625
aI170625
aI43125
aI343125
aI230625
aI328125
aI226875
aI88125
aI358125
aI311250
aI275625
aI73125
aI365625
aI247500
aI279375
aI82500
aI208125
aI223125
aI7500
aI116250
aI335625
aI253125
a.