(lp0
F156.2500000000002
aF165.28925619834718
aF176.21145374449347
aF163.93442622950835
aF141.84397163120573
aF148.69888475836444
aF104.98687664041988
aF170.2127659574468
aF193.23671497584525
aF173.16017316017343
aF150.94339622641525
aF175.43859649122797
aF186.9158878504675
aF101.0101010101011
aF89.28571428571432
aF196.07843137254898
aF174.6724890829696
aF195.1219512195122
aF179.37219730941695
aF169.49152542372906
aF157.48031496063007
aF163.26530612244898
aF117.30205278592388
aF181.8181818181818
aF173.91304347826087
aF118.34319526627215
aF82.3045267489712
aF152.6717557251909
aF195.1219512195122
aF195.1219512195122
aF139.37282229965163
aF182.64840182648422
aF194.17475728155344
aF182.64840182648373
aF152.09125475285165
aF194.17475728155372
aF164.6090534979423
aF196.07843137254898
aF195.1219512195122
aF122.6993865030675
aF180.18018018018026
aF183.48623853211046
aF154.44015444015457
aF195.1219512195122
aF126.58227848101279
aF94.78672985781994
aF124.2236024844721
aF114.61318051575938
aF135.13513513513516
aF196.07843137254898
aF195.1219512195122
aF142.34875444839875
aF188.67924528301896
aF79.52286282306166
aF140.35087719298247
aF99.50248756218909
aF102.30179028132994
aF103.62694300518145
aF127.38853503184723
aF181.8181818181818
aF123.45679012345688
aF141.34275618374554
aF187.79342723004734
aF186.9158878504675
aF159.36254980079667
aF179.37219730941695
aF160.0
aF165.97510373444007
aF120.84592145015118
aI0
aF194.17475728155344
aF180.99547511312244
aF169.49152542372906
aF186.04651162790697
aF191.38755980861265
aF125.00000000000011
aF158.73015873015845
aF134.2281879194633
aF184.33179723502315
aF111.73184357541896
aI0
aF115.6069364161849
aF133.33333333333334
aF160.64257028112465
aF76.33587786259545
aF84.92569002123143
aF193.23671497584553
aF149.81273408239707
aF112.67605633802818
aF156.86274509803923
aF150.37593984962425
aF196.07843137254898
aF116.61807580174923
aF108.40108401084018
aF176.21145374449347
aF132.45033112582786
aF196.07843137254898
aF196.07843137254898
aF136.05442176870758
aF154.44015444015457
aF107.23860589812345
aF176.21145374449347
aF160.00000000000017
aF165.28925619834718
aF187.79342723004734
aF189.57345971563961
aF132.01320132013197
aF142.85714285714286
aF129.03225806451613
aF163.26530612244898
aF134.68013468013473
aF177.77777777777777
aF188.67924528301896
aF194.17475728155344
aF173.91304347826087
aI0
aF136.51877133105822
aF93.02325581395355
aF180.18018018018026
aF147.0588235294115
aF144.40433212996396
aF195.1219512195122
aF195.12195121951245
aF170.9401709401711
aF91.32420091324204
aF161.94331983805677
aF186.04651162790697
aF196.07843137254898
aF137.93103448275863
aF149.25373134328368
aF120.12012012012018
aI0
aF167.36401673640182
aF143.88489208633086
aF158.1027667984189
aF195.1219512195122
aF137.4570446735394
aF168.77637130801696
aF177.77777777777777
aF190.47619047619048
aF195.1219512195122
aF161.94331983805677
aF190.47619047619074
aF139.86013986014004
aF195.1219512195119
aF194.17475728155372
aF172.41379310344837
aF110.80332409972301
aF145.45454545454547
aF155.64202334630357
aF119.40298507462687
aF192.3076923076922
aF147.05882352941182
aF87.14596949891072
aF190.47619047619048
aF130.29315960912058
aF145.98540145985413
aF193.23671497584525
aF113.63636363636367
aF98.03921568627449
aF129.87012987013006
aF161.29032258064527
aF131.14754098360655
aF72.59528130671507
aF193.23671497584553
aF109.58904109589041
aF168.06722689075642
aF167.36401673640182
aF96.3855421686747
aF148.14814814814815
aF153.84615384615384
aF185.185185185185
aF68.02721088435374
aF194.17475728155372
aF144.9275362318841
aF153.25670498084278
aF192.30769230769272
aF192.3076923076922
aF151.51515151515164
aF155.64202334630357
aF106.1007957559682
aF195.1219512195122
aF173.160173160173
aF195.1219512195122
aF171.6738197424894
aF128.20512820512826
aF194.17475728155344
aF193.23671497584553
aF184.33179723502315
aF121.95121951219508
aF195.1219512195122
aF176.99115044247813
aF185.18518518518547
aF125.78616352201253
aF166.66666666666666
aF170.9401709401707
aF62.11180124223605
aF138.88888888888883
aF195.1219512195122
aF178.57142857142875
a.