(lp0
F228.57142857142858
aF259.7402597402601
aF258.06451612903226
aF256.4102564102565
aF173.160173160173
aF105.26315789473684
aF259.7402597402601
aF266.6666666666667
aF170.2127659574468
aF272.10884353741517
aF253.16455696202513
aF224.7191011235961
aF261.4379084967323
aF206.1855670103095
aF270.2702702702711
aF94.11764705882354
aF273.97260273972665
aF256.4102564102565
aF120.84592145015097
aF238.09523809523793
aF258.06451612903203
aF223.46368715083827
aF150.9433962264151
aF206.1855670103095
aF57.142857142857146
aF258.06451612903226
aF248.44720496894396
aF263.1578947368423
aF195.1219512195122
aF261.4379084967323
aF273.9726027397256
aF202.02020202020248
aF270.2702702702701
aF258.06451612903226
aF240.96385542168724
aF270.2702702702711
aF231.21387283237055
aF256.410256410257
aF275.86206896551727
aF256.410256410257
aF259.74025974025966
aF161.94331983805677
aF259.74025974025966
aF268.4563758389266
aF266.6666666666667
aF261.4379084967328
aF213.9037433155075
aF270.2702702702711
aF275.86206896551727
aF250.00000000000023
aF232.55813953488388
aF143.36917562724025
aF275.86206896551727
aF245.39877300613566
aF97.08737864077686
aF256.4102564102565
aF256.4102564102565
aF259.74025974025966
aF208.33333333333346
aF248.44720496894396
aF190.47619047619048
aF239.5209580838325
aF211.6402116402119
aF264.90066225165623
aF238.09523809523793
aF270.2702702702711
aF253.16455696202604
aF236.6863905325447
aF224.71910112359535
aF213.90374331550814
aF189.57345971564013
aF246.91358024691377
aF270.2702702702711
aF264.90066225165623
aF235.2941176470588
aF248.44720496894462
aF194.17475728155318
aF112.35955056179768
aF261.43790849673184
aF233.91812865497045
aF204.08163265306158
aF251.57232704402506
aF275.8620689655162
aF225.9887005649719
aF256.4102564102565
aF272.10884353741625
aF273.97260273972773
aF261.4379084967328
aF167.36401673640182
aF253.16455696202513
aF253.16455696202513
aF248.44720496894462
aF243.9024390243906
aF264.90066225165623
aF145.98540145985413
aF250.0
aF114.61318051575938
aF227.2727272727277
aF273.9726027397256
aF147.05882352941182
aF253.16455696202513
aF250.0
aF256.4102564102565
aF250.00000000000023
aF270.2702702702711
aF261.43790849673184
aF259.7402597402601
aF273.9726027397256
aF256.410256410257
aF263.15789473684134
aF259.74025974025966
aF263.1578947368423
aF188.67924528301896
aF91.11617312072897
aF273.97260273972773
aF273.97260273972773
aF275.86206896551727
aF229.88505747126467
aF254.77707006369445
aF273.9726027397256
aF202.0202020202019
aF218.57923497267814
aF273.9726027397256
aF36.83241252302025
aF272.10884353741517
aF254.77707006369445
aF102.82776349614387
aF250.0
aF273.97260273972665
aF250.0
aF273.9726027397256
aF198.01980198019814
aF258.06451612903226
aF222.22222222222223
aF176.21145374449347
aF196.07843137254923
aF254.77707006369445
aF140.84507042253503
aF229.88505747126467
aF251.57232704402506
aF243.9024390243906
aF248.44720496894396
aF273.9726027397256
aF261.43790849673184
aF259.7402597402601
aF160.0
aF273.9726027397256
aF256.410256410257
aF250.0
aF227.27272727272697
aF266.6666666666667
aF200.0
aF197.04433497536934
aF84.38818565400838
aF246.91358024691377
aF254.77707006369445
aF266.6666666666667
aF264.9006622516552
aF256.4102564102565
aF253.16455696202604
aF209.42408376963326
aF239.5209580838325
aF273.9726027397256
aF239.5209580838325
aF250.00000000000023
aF273.9726027397256
aF273.97260273972665
aF258.06451612903226
aF242.42424242424244
aF248.44720496894462
aF176.99115044247813
aF80.48289738430586
aF273.9726027397256
aF273.9726027397256
aF213.90374331550814
aF273.9726027397256
aF263.1578947368423
aF273.97260273972665
aF256.4102564102565
aF275.86206896551727
aF118.6943620178042
aF186.04651162790697
aF158.1027667984189
aF128.20512820512826
aF273.97260273972773
aF268.4563758389266
aF186.9158878504675
aF273.97260273972665
aF266.6666666666667
aF203.04568527918792
aF200.0
aF266.6666666666667
aF261.4379084967328
aF173.16017316017343
aF180.99547511312244
aF261.43790849673184
aF261.43790849673184
aF251.5723270440255
aF259.74025974025966
aF248.4472049689442
aF272.10884353741415
aF253.16455696202604
aF273.97260273972773
aF258.06451612903226
aF129.87012987012983
aF272.10884353741517
aF246.91358024691377
aF273.97260273972665
aF235.2941176470588
aF272.10884353741415
aF253.16455696202513
aF272.10884353741625
aF268.4563758389266
aF261.43790849673184
aF266.6666666666667
aF253.16455696202513
aF171.6738197424896
aF264.90066225165623
aF273.97260273972773
aF258.06451612903226
aF250.00000000000023
aF216.21621621621622
aF248.44720496894396
aF201.00502512562838
aF254.77707006369445
aF212.765957446809
aF273.97260273972665
aF250.0
aF215.05376344086062
aF259.74025974025966
aF153.25670498084312
aF199.00497512437846
aF177.77777777777777
aF273.9726027397256
aF273.9726027397256
aF258.06451612903226
aF161.2903225806451
aF203.04568527918792
aF251.57232704402506
aF144.92753623188423
aF253.16455696202513
aF231.21387283237055
aF87.71929824561398
aF259.74025974025966
aF223.46368715083756
aF261.43790849673184
aF261.43790849673184
aF217.39130434782635
aF258.06451612903226
aF183.48623853211
aF273.97260273972773
aF272.10884353741517
aF259.7402597402601
aF253.16455696202513
aF275.86206896551727
aF192.30769230769272
aF229.88505747126467
aF225.9887005649719
aF251.57232704402506
aF182.64840182648422
aF256.4102564102565
aF261.4379084967323
aF155.64202334630357
aF156.86274509803923
aF254.77707006369445
aF198.01980198019814
aF211.6402116402119
aF259.74025974025966
aF186.04651162790697
aF261.43790849673184
aF270.2702702702711
aF236.6863905325447
aF180.18018018018026
aF76.62835249042148
aF273.97260273972665
aF273.9726027397256
aF258.06451612903226
aF259.74025974025966
aF268.4563758389266
aF251.57232704402506
aF134.68013468013473
aF270.2702702702711
aF240.96385542168724
aF149.81273408239707
aF261.43790849673184
aF228.57142857142858
aF256.410256410256
aF250.0
aF253.16455696202513
aF273.97260273972773
aF261.43790849673184
aF116.61807580174943
aF210.52631578947367
aF273.97260273972665
aF273.97260273972665
aF251.5723270440255
aF268.4563758389266
aF248.44720496894462
aF242.42424242424244
aF259.7402597402601
aF206.1855670103095
aF229.88505747126467
aF179.3721973094174
aF163.93442622950835
aF250.00000000000023
aF254.77707006369445
aF266.6666666666667
aF270.2702702702711
aF248.4472049689442
aF275.86206896551727
aF272.10884353741517
aF232.55813953488388
aF273.9726027397256
aF197.04433497536934
aF133.33333333333334
aF270.2702702702701
aF273.9726027397256
aF222.22222222222223
aF165.28925619834718
aF273.9726027397256
aF268.4563758389266
aF250.0
aF223.46368715083827
aF261.43790849673184
aF233.9181286549712
aF273.97260273972773
aF67.68189509306258
aF240.96385542168642
aF175.43859649122842
aF152.09125475285197
aF136.05442176870758
aF126.58227848101257
aF254.77707006369445
aF273.9726027397256
aF261.4379084967323
aF258.06451612903226
aF253.16455696202513
aF273.97260273972665
aF192.30769230769272
aF261.43790849673184
aF254.77707006369445
aF218.57923497267814
aF248.44720496894462
aF259.7402597402601
aF205.12820512820514
aF184.33179723502315
aF159.36254980079667
aF204.08163265306158
aF266.6666666666667
aF181.8181818181818
aF264.90066225165623
aF251.5723270440255
aF268.4563758389266
aF273.97260273972665
aF254.77707006369445
aF254.77707006369445
aF207.25388601036317
aF220.99447513812197
aF215.05376344086062
aF238.09523809523873
aF272.10884353741517
aF248.44720496894396
aF72.20216606498198
aF253.16455696202513
aF168.06722689075661
aF245.3987730061348
aF264.90066225165623
aF195.1219512195122
aF261.4379084967323
aF253.16455696202513
aF208.33333333333346
aF254.77707006369445
aF231.21387283237055
aF224.7191011235961
aF210.52631578947367
aF245.39877300613566
aF219.7802197802199
aF232.5581395348831
aF275.86206896551727
aF187.79342723004734
aF273.9726027397256
aF273.97260273972665
aF138.8888888888891
aF251.57232704402506
aI0
aF272.10884353741517
aF51.15089514066501
aF264.90066225165623
aF122.6993865030674
aF258.06451612903226
aF273.9726027397256
aF236.6863905325447
aF263.1578947368423
aF227.2727272727277
aF148.69888475836444
aF263.1578947368423
aF250.0
aF137.45704467353968
aF209.42408376963388
aF259.74025974025966
aF243.90243902438974
aF264.90066225165623
aF174.67248908296918
aF270.2702702702711
aF254.77707006369445
aF273.9726027397256
aF250.0
aF261.43790849673184
aF261.43790849673184
aF235.2941176470588
aF251.5723270440255
aF178.57142857142875
aF273.9726027397256
aF277.7777777777782
aF107.81671159029644
aF275.86206896551727
aF259.74025974025966
aF124.61059190031166
aF217.39130434782635
aF243.9024390243906
aF273.9726027397256
aF235.2941176470588
aF273.9726027397256
aF256.4102564102565
aF242.42424242424244
aF251.5723270440255
aF259.7402597402601
aF273.9726027397256
aF250.0
aF169.49152542372866
aF275.86206896551727
aF44.49388209121247
aF254.77707006369445
aF211.6402116402119
aF258.06451612903226
aF259.7402597402601
aF258.06451612903203
aF218.57923497267745
aF170.9401709401711
aF242.42424242424244
aF216.21621621621622
aF256.4102564102565
aF154.44015444015457
aF268.4563758389266
aF272.10884353741517
aF220.99447513812197
aF258.06451612903226
aF62.59780907668234
aF163.26530612244898
aF272.10884353741517
aF253.16455696202513
aF272.10884353741415
aF240.96385542168724
aF273.97260273972665
aF189.57345971563961
aF100.0
aF251.57232704402506
aF259.7402597402601
aF238.09523809523873
aF216.21621621621622
aF259.74025974025966
aF131.5789473684209
aF275.86206896551727
aF185.18518518518547
aF254.77707006369445
aF273.97260273972773
aF273.97260273972665
aF193.23671497584553
aF239.5209580838325
aF246.91358024691377
aF259.74025974025966
aF275.86206896551727
aF263.1578947368423
aF253.16455696202604
aF272.10884353741517
aF245.39877300613566
aF231.21387283237055
aF219.7802197802199
aF268.4563758389266
aF268.4563758389266
aF268.4563758389266
aF191.38755980861265
aF245.39877300613566
aF268.4563758389266
aF273.9726027397256
aF266.6666666666667
aF272.10884353741517
aF259.7402597402601
aF275.86206896551727
aF275.86206896551727
aF220.99447513812197
aF233.9181286549712
aF254.77707006369445
aF273.97260273972665
aF110.19283746556471
aF273.9726027397256
aF141.84397163120573
aF225.9887005649719
aF165.97510373444007
aF261.4379084967323
a.